target datalayout = "e-m:e-p270:32:32-p271:32:32-p272:64:64-i64:64-i128:128-f80:128-n8:16:32:64-S128"
target triple = "x86_64-pc-linux-gnu"

; Function Attrs: nounwind uwtable
define internal void @HE16_C(ptr noundef %0) #0 {
  %2 = alloca ptr, align 8
  %3 = alloca i32, align 4
  store ptr %0, ptr %2, align 8, !tbaa !16
  call void @llvm.lifetime.start.p0(i64 4, ptr %3) #7
  store i32 16, ptr %3, align 4, !tbaa !9
  br label %4

4:                                                ; preds = %16, %1
  %5 = load i32, ptr %3, align 4, !tbaa !9
  %6 = icmp sgt i32 %5, 0
  br i1 %6, label %7, label %19

7:                                                ; preds = %4
  %8 = load ptr, ptr %2, align 8, !tbaa !16
  %9 = load ptr, ptr %2, align 8, !tbaa !16
  %10 = getelementptr inbounds i8, ptr %9, i64 -1
  %11 = load i8, ptr %10, align 1, !tbaa !18
  %12 = zext i8 %11 to i32
  %13 = trunc i32 %12 to i8
  call void @llvm.memset.p0.i64(ptr align 1 %8, i8 %13, i64 16, i1 false)
  %14 = load ptr, ptr %2, align 8, !tbaa !16
  %15 = getelementptr inbounds i8, ptr %14, i64 32
  store ptr %15, ptr %2, align 8, !tbaa !16
  br label %16

16:                                               ; preds = %7
  %17 = load i32, ptr %3, align 4, !tbaa !9
  %18 = add nsw i32 %17, -1
  store i32 %18, ptr %3, align 4, !tbaa !9
  br label %4, !llvm.loop !32

19:                                               ; preds = %4
  call void @llvm.lifetime.end.p0(i64 4, ptr %3) #7
  ret void
}