; Function Attrs: nofree norecurse nosync nounwind memory(argmem: readwrite) uwtable
define internal void @HE16_C(ptr noundef captures(none) %0) #3 {
  br label %2

2:                                                ; preds = %1, %2
  %.06 = phi i32 [ 16, %1 ], [ %6, %2 ]
  %.045 = phi ptr [ %0, %1 ], [ %5, %2 ]
  %3 = getelementptr inbounds i8, ptr %.045, i64 -1
  %4 = load i8, ptr %3, align 1, !tbaa !14
  tail call void @llvm.memset.p0.i64(ptr noundef nonnull align 1 dereferenceable(16) %.045, i8 %4, i64 16, i1 false)
  %5 = getelementptr inbounds nuw i8, ptr %.045, i64 32
  %6 = add nsw i32 %.06, -1
  %7 = icmp ugt i32 %.06, 1
  br i1 %7, label %2, label %8, !llvm.loop !33

8:                                                ; preds = %2
  ret void
}